; Function Attrs: mustprogress nofree norecurse nosync nounwind willreturn memory(argmem: read) uwtable
define dso_local noundef ptr @_ZN4llvm16MCObjectStreamer15getAssemblerPtrEv(ptr noundef nonnull readonly align 8 captures(none) dereferenceable(424) %0) unnamed_addr #5 align 2 {
  %2 = getelementptr inbounds nuw i8, ptr %0, i64 276
  %3 = load i8, ptr %2, align 4
  %4 = trunc i8 %3 to i1
  %5 = getelementptr inbounds nuw i8, ptr %0, i64 288
  %6 = load ptr, ptr %5, align 8
  %.0 = select i1 %4, ptr %6, ptr null
  ret ptr %.0
}